target datalayout = "e-m:e-p270:32:32-p271:32:32-p272:64:64-i64:64-i128:128-f80:128-n8:16:32:64-S128"
target triple = "x86_64-pc-linux-gnu"

@.str = private unnamed_addr constant [11 x i8] c"Curve25519\00", align 1

; Function Attrs: null_pointer_is_valid sspstrong uwtable
define i32 @crypto_scalarmult_curve25519(ptr noundef %0, ptr noundef %1, ptr noundef %2) #0 {
  %4 = alloca ptr, align 8
  %5 = alloca ptr, align 8
  %6 = alloca ptr, align 8
  %7 = alloca [32 x i8], align 16
  %8 = alloca ptr, align 8
  %9 = alloca i32, align 4
  store ptr %0, ptr %4, align 8
  store ptr %1, ptr %5, align 8
  store ptr %2, ptr %6, align 8
  call void @llvm.lifetime.start.p0(i64 32, ptr %7) #7
  call void @llvm.lifetime.start.p0(i64 8, ptr %8) #7
  store ptr null, ptr %8, align 8
  %10 = getelementptr inbounds [32 x i8], ptr %7, i64 0, i64 0
  %11 = load ptr, ptr %6, align 8
  call void @copy_and_reverse(ptr noundef %10, ptr noundef %11, i64 noundef 32)
  %12 = getelementptr [32 x i8], ptr %7, i64 0, i64 0
  %13 = load i8, ptr %12, align 16
  %14 = zext i8 %13 to i32
  %15 = and i32 %14, 127
  %16 = trunc i32 %15 to i8
  store i8 %16, ptr %12, align 16
  %17 = getelementptr inbounds [32 x i8], ptr %7, i64 0, i64 0
  %18 = call i32 @gcry_mpi_scan(ptr noundef %8, i32 noundef 5, ptr noundef %17, i64 noundef 32, ptr noundef null)
  call void @llvm.lifetime.start.p0(i64 4, ptr %9) #7
  %19 = load ptr, ptr %4, align 8
  %20 = load ptr, ptr %5, align 8
  %21 = load ptr, ptr %8, align 8
  %22 = call i32 @x25519_mpi(ptr noundef %19, ptr noundef %20, ptr noundef %21)
  store i32 %22, ptr %9, align 4
  %23 = load ptr, ptr %8, align 8
  call void @gcry_mpi_release(ptr noundef %23)
  %24 = load i32, ptr %9, align 4
  call void @llvm.lifetime.end.p0(i64 4, ptr %9) #7
  call void @llvm.lifetime.end.p0(i64 8, ptr %8) #7
  call void @llvm.lifetime.end.p0(i64 32, ptr %7) #7
  ret i32 %24
}

; Function Attrs: nocallback nofree nosync nounwind willreturn memory(argmem: readwrite)
declare void @llvm.lifetime.start.p0(i64 immarg, ptr captures(none)) #1

; Function Attrs: inlinehint nounwind null_pointer_is_valid sspstrong uwtable
define internal void @copy_and_reverse(ptr noundef %0, ptr noundef %1, i64 noundef %2) #2 {
  %4 = alloca ptr, align 8
  %5 = alloca ptr, align 8
  %6 = alloca i64, align 8
  %7 = alloca i64, align 8
  store ptr %0, ptr %4, align 8
  store ptr %1, ptr %5, align 8
  store i64 %2, ptr %6, align 8
  call void @llvm.lifetime.start.p0(i64 8, ptr %7) #7
  store i64 0, ptr %7, align 8
  br label %8

8:                                                ; preds = %24, %3
  %9 = load i64, ptr %7, align 8
  %10 = load i64, ptr %6, align 8
  %11 = icmp ult i64 %9, %10
  br i1 %11, label %13, label %12

12:                                               ; preds = %8
  call void @llvm.lifetime.end.p0(i64 8, ptr %7) #7
  br label %27

13:                                               ; preds = %8
  %14 = load ptr, ptr %5, align 8
  %15 = load i64, ptr %7, align 8
  %16 = getelementptr i8, ptr %14, i64 %15
  %17 = load i8, ptr %16, align 1
  %18 = load ptr, ptr %4, align 8
  %19 = load i64, ptr %6, align 8
  %20 = sub i64 %19, 1
  %21 = load i64, ptr %7, align 8
  %22 = sub i64 %20, %21
  %23 = getelementptr i8, ptr %18, i64 %22
  store i8 %17, ptr %23, align 1
  br label %24

24:                                               ; preds = %13
  %25 = load i64, ptr %7, align 8
  %26 = add i64 %25, 1
  store i64 %26, ptr %7, align 8
  br label %8, !llvm.loop !6

27:                                               ; preds = %12
  ret void
}

; Function Attrs: null_pointer_is_valid
declare i32 @gcry_mpi_scan(ptr noundef, i32 noundef, ptr noundef, i64 noundef, ptr noundef) #3

; Function Attrs: null_pointer_is_valid sspstrong uwtable
define internal i32 @x25519_mpi(ptr noundef %0, ptr noundef %1, ptr noundef %2) #0 {
  %4 = alloca ptr, align 8
  %5 = alloca ptr, align 8
  %6 = alloca ptr, align 8
  %7 = alloca [32 x i8], align 16
  %8 = alloca [32 x i8], align 16
  %9 = alloca i64, align 8
  %10 = alloca ptr, align 8
  %11 = alloca ptr, align 8
  %12 = alloca ptr, align 8
  %13 = alloca ptr, align 8
  %14 = alloca i32, align 4
  store ptr %0, ptr %4, align 8
  store ptr %1, ptr %5, align 8
  store ptr %2, ptr %6, align 8
  call void @llvm.lifetime.start.p0(i64 32, ptr %7) #7
  call void @llvm.lifetime.start.p0(i64 32, ptr %8) #7
  call void @llvm.lifetime.start.p0(i64 8, ptr %9) #7
  store i64 0, ptr %9, align 8
  call void @llvm.lifetime.start.p0(i64 8, ptr %10) #7
  store ptr null, ptr %10, align 8
  call void @llvm.lifetime.start.p0(i64 8, ptr %11) #7
  store ptr null, ptr %11, align 8
  call void @llvm.lifetime.start.p0(i64 8, ptr %12) #7
  store ptr null, ptr %12, align 8
  call void @llvm.lifetime.start.p0(i64 8, ptr %13) #7
  store ptr null, ptr %13, align 8
  call void @llvm.lifetime.start.p0(i64 4, ptr %14) #7
  store i32 -1, ptr %14, align 4
  %15 = load ptr, ptr %4, align 8
  %16 = call ptr @memset.inline(ptr noundef %15, i32 noundef 0, i64 noundef 32) #7
  %17 = getelementptr inbounds [32 x i8], ptr %7, i64 0, i64 0
  %18 = load ptr, ptr %5, align 8
  call void @copy_and_reverse(ptr noundef %17, ptr noundef %18, i64 noundef 32)
  %19 = getelementptr [32 x i8], ptr %7, i64 0, i64 0
  %20 = load i8, ptr %19, align 16
  %21 = zext i8 %20 to i32
  %22 = and i32 %21, 127
  %23 = trunc i32 %22 to i8
  store i8 %23, ptr %19, align 16
  %24 = getelementptr [32 x i8], ptr %7, i64 0, i64 0
  %25 = load i8, ptr %24, align 16
  %26 = zext i8 %25 to i32
  %27 = or i32 %26, 64
  %28 = trunc i32 %27 to i8
  store i8 %28, ptr %24, align 16
  %29 = getelementptr [32 x i8], ptr %7, i64 0, i64 31
  %30 = load i8, ptr %29, align 1
  %31 = zext i8 %30 to i32
  %32 = and i32 %31, 248
  %33 = trunc i32 %32 to i8
  store i8 %33, ptr %29, align 1
  %34 = getelementptr inbounds [32 x i8], ptr %7, i64 0, i64 0
  %35 = call i32 @gcry_mpi_scan(ptr noundef %10, i32 noundef 5, ptr noundef %34, i64 noundef 32, ptr noundef null)
  %36 = call i32 @gcry_mpi_ec_new(ptr noundef %11, ptr noundef null, ptr noundef @.str)
  %37 = icmp ne i32 %36, 0
  br i1 %37, label %38, label %39

38:                                               ; preds = %3
  br label %64

39:                                               ; preds = %3
  %40 = call ptr @gcry_mpi_point_new(i32 noundef 0)
  store ptr %40, ptr %13, align 8
  %41 = load ptr, ptr %6, align 8
  %42 = call ptr @_gcry_mpi_get_const(i32 noundef 1)
  %43 = call ptr @gcry_mpi_point_set(ptr noundef null, ptr noundef %41, ptr noundef null, ptr noundef %42)
  store ptr %43, ptr %12, align 8
  %44 = load ptr, ptr %13, align 8
  %45 = load ptr, ptr %10, align 8
  %46 = load ptr, ptr %12, align 8
  %47 = load ptr, ptr %11, align 8
  call void @gcry_mpi_ec_mul(ptr noundef %44, ptr noundef %45, ptr noundef %46, ptr noundef %47)
  %48 = load ptr, ptr %10, align 8
  %49 = load ptr, ptr %13, align 8
  %50 = load ptr, ptr %11, align 8
  %51 = call i32 @gcry_mpi_ec_get_affine(ptr noundef %48, ptr noundef null, ptr noundef %49, ptr noundef %50)
  %52 = icmp ne i32 %51, 0
  br i1 %52, label %53, label %54

53:                                               ; preds = %39
  br label %64

54:                                               ; preds = %39
  %55 = getelementptr inbounds [32 x i8], ptr %8, i64 0, i64 0
  %56 = load ptr, ptr %10, align 8
  %57 = call i32 @gcry_mpi_print(i32 noundef 5, ptr noundef %55, i64 noundef 32, ptr noundef %9, ptr noundef %56)
  %58 = icmp ne i32 %57, 0
  br i1 %58, label %59, label %60

59:                                               ; preds = %54
  br label %64

60:                                               ; preds = %54
  %61 = load ptr, ptr %4, align 8
  %62 = getelementptr inbounds [32 x i8], ptr %8, i64 0, i64 0
  %63 = load i64, ptr %9, align 8
  call void @copy_and_reverse(ptr noundef %61, ptr noundef %62, i64 noundef %63)
  store i32 0, ptr %14, align 4
  br label %64

64:                                               ; preds = %60, %59, %53, %38
  %65 = load ptr, ptr %12, align 8
  call void @gcry_mpi_point_release(ptr noundef %65)
  %66 = load ptr, ptr %13, align 8
  call void @gcry_mpi_point_release(ptr noundef %66)
  %67 = load ptr, ptr %11, align 8
  call void @gcry_ctx_release(ptr noundef %67)
  %68 = load ptr, ptr %10, align 8
  call void @gcry_mpi_release(ptr noundef %68)
  %69 = load i32, ptr %14, align 4
  call void @llvm.lifetime.end.p0(i64 4, ptr %14) #7
  call void @llvm.lifetime.end.p0(i64 8, ptr %13) #7
  call void @llvm.lifetime.end.p0(i64 8, ptr %12) #7
  call void @llvm.lifetime.end.p0(i64 8, ptr %11) #7
  call void @llvm.lifetime.end.p0(i64 8, ptr %10) #7
  call void @llvm.lifetime.end.p0(i64 8, ptr %9) #7
  call void @llvm.lifetime.end.p0(i64 32, ptr %8) #7
  call void @llvm.lifetime.end.p0(i64 32, ptr %7) #7
  ret i32 %69
}

; Function Attrs: null_pointer_is_valid
declare void @gcry_mpi_release(ptr noundef) #3

; Function Attrs: nocallback nofree nosync nounwind willreturn memory(argmem: readwrite)
declare void @llvm.lifetime.end.p0(i64 immarg, ptr captures(none)) #1

; Function Attrs: null_pointer_is_valid sspstrong uwtable
define i32 @crypto_scalarmult_curve25519_base(ptr noundef %0, ptr noundef %1) #0 {
  %3 = alloca ptr, align 8
  %4 = alloca ptr, align 8
  %5 = alloca ptr, align 8
  %6 = alloca i32, align 4
  store ptr %0, ptr %3, align 8
  store ptr %1, ptr %4, align 8
  call void @llvm.lifetime.start.p0(i64 8, ptr %5) #7
  %7 = call ptr @gcry_mpi_set_ui(ptr noundef null, i64 noundef 9)
  store ptr %7, ptr %5, align 8
  call void @llvm.lifetime.start.p0(i64 4, ptr %6) #7
  %8 = load ptr, ptr %3, align 8
  %9 = load ptr, ptr %4, align 8
  %10 = load ptr, ptr %5, align 8
  %11 = call i32 @x25519_mpi(ptr noundef %8, ptr noundef %9, ptr noundef %10)
  store i32 %11, ptr %6, align 4
  %12 = load ptr, ptr %5, align 8
  call void @gcry_mpi_release(ptr noundef %12)
  %13 = load i32, ptr %6, align 4
  call void @llvm.lifetime.end.p0(i64 4, ptr %6) #7
  call void @llvm.lifetime.end.p0(i64 8, ptr %5) #7
  ret i32 %13
}

; Function Attrs: null_pointer_is_valid
declare ptr @gcry_mpi_set_ui(ptr noundef, i64 noundef) #3

; Function Attrs: alwaysinline nounwind
define internal ptr @memset.inline(ptr %0, i32 %1, i64 %2) #4 {
  %4 = alloca ptr, align 8
  %5 = alloca i32, align 4
  %6 = alloca i64, align 8
  store ptr %0, ptr %4, align 8
  store i32 %1, ptr %5, align 4
  store i64 %2, ptr %6, align 8
  %7 = load ptr, ptr %4, align 8
  %8 = load i32, ptr %5, align 4
  %9 = load i64, ptr %6, align 8
  %10 = load ptr, ptr %4, align 8
  %11 = call i64 @llvm.objectsize.i64.p0(ptr %10, i1 false, i1 true, i1 true)
  %12 = call ptr @__memset_chk(ptr noundef %7, i32 noundef %8, i64 noundef %9, i64 noundef %11) #7
  ret ptr %12
}

; Function Attrs: null_pointer_is_valid
declare i32 @gcry_mpi_ec_new(ptr noundef, ptr noundef, ptr noundef) #3

; Function Attrs: null_pointer_is_valid
declare ptr @gcry_mpi_point_new(i32 noundef) #3

; Function Attrs: null_pointer_is_valid
declare ptr @gcry_mpi_point_set(ptr noundef, ptr noundef, ptr noundef, ptr noundef) #3

; Function Attrs: null_pointer_is_valid
declare ptr @_gcry_mpi_get_const(i32 noundef) #3

; Function Attrs: null_pointer_is_valid
declare void @gcry_mpi_ec_mul(ptr noundef, ptr noundef, ptr noundef, ptr noundef) #3

; Function Attrs: null_pointer_is_valid
declare i32 @gcry_mpi_ec_get_affine(ptr noundef, ptr noundef, ptr noundef, ptr noundef) #3

; Function Attrs: null_pointer_is_valid
declare i32 @gcry_mpi_print(i32 noundef, ptr noundef, i64 noundef, ptr noundef, ptr noundef) #3

; Function Attrs: null_pointer_is_valid
declare void @gcry_mpi_point_release(ptr noundef) #3

; Function Attrs: null_pointer_is_valid
declare void @gcry_ctx_release(ptr noundef) #3

; Function Attrs: nounwind null_pointer_is_valid
declare ptr @__memset_chk(ptr noundef, i32 noundef, i64 noundef, i64 noundef) #5

; Function Attrs: nocallback nofree nosync nounwind speculatable willreturn memory(none)
declare i64 @llvm.objectsize.i64.p0(ptr, i1 immarg, i1 immarg, i1 immarg) #6


!llvm.module.flags = !{!0, !1, !2, !3, !4, !5}

!0 = !{i32 1, !"wchar_size", i32 4}
!1 = !{i32 8, !"cf-protection-return", i32 1}
!2 = !{i32 8, !"cf-protection-branch", i32 1}
!3 = !{i32 4, !"probe-stack", !"inline-asm"}
!4 = !{i32 8, !"PIC Level", i32 2}
!5 = !{i32 7, !"uwtable", i32 2}
!6 = distinct !{!6, !7}
!7 = !{!"llvm.loop.mustprogress"}
